target datalayout = "e-m:e-p270:32:32-p271:32:32-p272:64:64-i64:64-i128:128-f80:128-n8:16:32:64-S128"
target triple = "x86_64-pc-linux-gnu"

%"struct.llvm::EVT" = type { %"class.llvm::MVT", ptr }
%"class.llvm::MVT" = type { i16 }

; Function Attrs: mustprogress nounwind uwtable
define linkonce_odr hidden noundef zeroext i1 @_ZNK4llvm3EVTneES0_(ptr noundef nonnull align 8 dereferenceable(16) %0, i16 %1, ptr %2) #1 comdat align 2 {
  %4 = alloca i1, align 1
  %5 = alloca %"struct.llvm::EVT", align 8
  %6 = alloca ptr, align 8
  %7 = getelementptr inbounds nuw { i16, ptr }, ptr %5, i32 0, i32 0
  store i16 %1, ptr %7, align 8
  %8 = getelementptr inbounds nuw { i16, ptr }, ptr %5, i32 0, i32 1
  store ptr %2, ptr %8, align 8
  store ptr %0, ptr %6, align 8
  %9 = load ptr, ptr %6, align 8
  %10 = getelementptr inbounds nuw %"struct.llvm::EVT", ptr %9, i32 0, i32 0
  %11 = getelementptr inbounds nuw %"class.llvm::MVT", ptr %10, i32 0, i32 0
  %12 = load i16, ptr %11, align 8
  %13 = zext i16 %12 to i32
  %14 = getelementptr inbounds nuw %"struct.llvm::EVT", ptr %5, i32 0, i32 0
  %15 = getelementptr inbounds nuw %"class.llvm::MVT", ptr %14, i32 0, i32 0
  %16 = load i16, ptr %15, align 8
  %17 = zext i16 %16 to i32
  %18 = icmp ne i32 %13, %17
  br i1 %18, label %19, label %20

19:                                               ; preds = %3
  store i1 true, ptr %4, align 1
  br label %33

20:                                               ; preds = %3
  %21 = getelementptr inbounds nuw %"struct.llvm::EVT", ptr %9, i32 0, i32 0
  %22 = getelementptr inbounds nuw %"class.llvm::MVT", ptr %21, i32 0, i32 0
  %23 = load i16, ptr %22, align 8
  %24 = zext i16 %23 to i32
  %25 = icmp eq i32 %24, 0
  br i1 %25, label %26, label %32

26:                                               ; preds = %20
  %27 = getelementptr inbounds nuw %"struct.llvm::EVT", ptr %9, i32 0, i32 1
  %28 = load ptr, ptr %27, align 8
  %29 = getelementptr inbounds nuw %"struct.llvm::EVT", ptr %5, i32 0, i32 1
  %30 = load ptr, ptr %29, align 8
  %31 = icmp ne ptr %28, %30
  store i1 %31, ptr %4, align 1
  br label %33

32:                                               ; preds = %20
  store i1 false, ptr %4, align 1
  br label %33

33:                                               ; preds = %32, %26, %19
  %34 = load i1, ptr %4, align 1
  ret i1 %34
}

; Function Attrs: mustprogress nounwind uwtable
define linkonce_odr hidden void @_ZN4llvm3MVTC2ENS0_15SimpleValueTypeE(ptr noundef nonnull align 2 dereferenceable(2) %0, i16 noundef zeroext %1) unnamed_addr #1 comdat align 2 {
  %3 = alloca ptr, align 8
  %4 = alloca i16, align 2
  store ptr %0, ptr %3, align 8
  store i16 %1, ptr %4, align 2
  %5 = load ptr, ptr %3, align 8
  %6 = getelementptr inbounds nuw %"class.llvm::MVT", ptr %5, i32 0, i32 0
  %7 = load i16, ptr %4, align 2
  store i16 %7, ptr %6, align 2
  ret void
}

; Function Attrs: mustprogress nounwind uwtable
define linkonce_odr hidden noundef zeroext i1 @_ZNK4llvm3EVTeqES0_(ptr noundef nonnull align 8 dereferenceable(16) %0, i16 %1, ptr %2) #1 comdat align 2 {
  %4 = alloca %"struct.llvm::EVT", align 8
  %5 = alloca ptr, align 8
  %6 = alloca %"struct.llvm::EVT", align 8
  %7 = getelementptr inbounds nuw { i16, ptr }, ptr %4, i32 0, i32 0
  store i16 %1, ptr %7, align 8
  %8 = getelementptr inbounds nuw { i16, ptr }, ptr %4, i32 0, i32 1
  store ptr %2, ptr %8, align 8
  store ptr %0, ptr %5, align 8
  %9 = load ptr, ptr %5, align 8
  call void @llvm.memcpy.p0.p0.i64(ptr align 8 %6, ptr align 8 %4, i64 16, i1 false)
  %10 = getelementptr inbounds nuw { i16, ptr }, ptr %6, i32 0, i32 0
  %11 = load i16, ptr %10, align 8
  %12 = getelementptr inbounds nuw { i16, ptr }, ptr %6, i32 0, i32 1
  %13 = load ptr, ptr %12, align 8
  %14 = call noundef zeroext i1 @_ZNK4llvm3EVTneES0_(ptr noundef nonnull align 8 dereferenceable(16) %9, i16 %11, ptr %13)
  %15 = xor i1 %14, true
  ret i1 %15
}

; Function Attrs: mustprogress nounwind uwtable
define linkonce_odr hidden void @_ZN4llvm3EVTC2ENS_3MVT15SimpleValueTypeE(ptr noundef nonnull align 8 dereferenceable(16) %0, i16 noundef zeroext %1) unnamed_addr #1 comdat align 2 {
  %3 = alloca ptr, align 8
  %4 = alloca i16, align 2
  store ptr %0, ptr %3, align 8
  store i16 %1, ptr %4, align 2
  %5 = load ptr, ptr %3, align 8
  %6 = getelementptr inbounds nuw %"struct.llvm::EVT", ptr %5, i32 0, i32 0
  %7 = load i16, ptr %4, align 2
  call void @_ZN4llvm3MVTC2ENS0_15SimpleValueTypeE(ptr noundef nonnull align 2 dereferenceable(2) %6, i16 noundef zeroext %7)
  %8 = getelementptr inbounds nuw %"struct.llvm::EVT", ptr %5, i32 0, i32 1
  store ptr null, ptr %8, align 8
  ret void
}

; Function Attrs: mustprogress nounwind uwtable
define dso_local noundef i32 @_ZN4llvm5RTLIB11getUINTTOFPENS_3EVTES1_(i16 %0, ptr %1, i16 %2, ptr %3) #1 {
  %5 = alloca i32, align 4
  %6 = alloca %"struct.llvm::EVT", align 8
  %7 = alloca %"struct.llvm::EVT", align 8
  %8 = alloca %"struct.llvm::EVT", align 8
  %9 = alloca %"struct.llvm::EVT", align 8
  %10 = alloca %"struct.llvm::EVT", align 8
  %11 = alloca %"struct.llvm::EVT", align 8
  %12 = alloca %"struct.llvm::EVT", align 8
  %13 = alloca %"struct.llvm::EVT", align 8
  %14 = alloca %"struct.llvm::EVT", align 8
  %15 = alloca %"struct.llvm::EVT", align 8
  %16 = alloca %"struct.llvm::EVT", align 8
  %17 = alloca %"struct.llvm::EVT", align 8
  %18 = alloca %"struct.llvm::EVT", align 8
  %19 = alloca %"struct.llvm::EVT", align 8
  %20 = alloca %"struct.llvm::EVT", align 8
  %21 = alloca %"struct.llvm::EVT", align 8
  %22 = alloca %"struct.llvm::EVT", align 8
  %23 = alloca %"struct.llvm::EVT", align 8
  %24 = alloca %"struct.llvm::EVT", align 8
  %25 = alloca %"struct.llvm::EVT", align 8
  %26 = alloca %"struct.llvm::EVT", align 8
  %27 = alloca %"struct.llvm::EVT", align 8
  %28 = alloca %"struct.llvm::EVT", align 8
  %29 = getelementptr inbounds nuw { i16, ptr }, ptr %6, i32 0, i32 0
  store i16 %0, ptr %29, align 8
  %30 = getelementptr inbounds nuw { i16, ptr }, ptr %6, i32 0, i32 1
  store ptr %1, ptr %30, align 8
  %31 = getelementptr inbounds nuw { i16, ptr }, ptr %7, i32 0, i32 0
  store i16 %2, ptr %31, align 8
  %32 = getelementptr inbounds nuw { i16, ptr }, ptr %7, i32 0, i32 1
  store ptr %3, ptr %32, align 8
  call void @_ZN4llvm3EVTC2ENS_3MVT15SimpleValueTypeE(ptr noundef nonnull align 8 dereferenceable(16) %8, i16 noundef zeroext 7)
  %33 = getelementptr inbounds nuw { i16, ptr }, ptr %8, i32 0, i32 0
  %34 = load i16, ptr %33, align 8
  %35 = getelementptr inbounds nuw { i16, ptr }, ptr %8, i32 0, i32 1
  %36 = load ptr, ptr %35, align 8
  %37 = call noundef zeroext i1 @_ZNK4llvm3EVTeqES0_(ptr noundef nonnull align 8 dereferenceable(16) %6, i16 %34, ptr %36)
  br i1 %37, label %38, label %81

38:                                               ; preds = %4
  call void @_ZN4llvm3EVTC2ENS_3MVT15SimpleValueTypeE(ptr noundef nonnull align 8 dereferenceable(16) %9, i16 noundef zeroext 11)
  %39 = getelementptr inbounds nuw { i16, ptr }, ptr %9, i32 0, i32 0
  %40 = load i16, ptr %39, align 8
  %41 = getelementptr inbounds nuw { i16, ptr }, ptr %9, i32 0, i32 1
  %42 = load ptr, ptr %41, align 8
  %43 = call noundef zeroext i1 @_ZNK4llvm3EVTeqES0_(ptr noundef nonnull align 8 dereferenceable(16) %7, i16 %40, ptr %42)
  br i1 %43, label %44, label %45

44:                                               ; preds = %38
  store i32 391, ptr %5, align 4
  br label %182

45:                                               ; preds = %38
  call void @_ZN4llvm3EVTC2ENS_3MVT15SimpleValueTypeE(ptr noundef nonnull align 8 dereferenceable(16) %10, i16 noundef zeroext 12)
  %46 = getelementptr inbounds nuw { i16, ptr }, ptr %10, i32 0, i32 0
  %47 = load i16, ptr %46, align 8
  %48 = getelementptr inbounds nuw { i16, ptr }, ptr %10, i32 0, i32 1
  %49 = load ptr, ptr %48, align 8
  %50 = call noundef zeroext i1 @_ZNK4llvm3EVTeqES0_(ptr noundef nonnull align 8 dereferenceable(16) %7, i16 %47, ptr %49)
  br i1 %50, label %51, label %52

51:                                               ; preds = %45
  store i32 392, ptr %5, align 4
  br label %182

52:                                               ; preds = %45
  call void @_ZN4llvm3EVTC2ENS_3MVT15SimpleValueTypeE(ptr noundef nonnull align 8 dereferenceable(16) %11, i16 noundef zeroext 13)
  %53 = getelementptr inbounds nuw { i16, ptr }, ptr %11, i32 0, i32 0
  %54 = load i16, ptr %53, align 8
  %55 = getelementptr inbounds nuw { i16, ptr }, ptr %11, i32 0, i32 1
  %56 = load ptr, ptr %55, align 8
  %57 = call noundef zeroext i1 @_ZNK4llvm3EVTeqES0_(ptr noundef nonnull align 8 dereferenceable(16) %7, i16 %54, ptr %56)
  br i1 %57, label %58, label %59

58:                                               ; preds = %52
  store i32 393, ptr %5, align 4
  br label %182

59:                                               ; preds = %52
  call void @_ZN4llvm3EVTC2ENS_3MVT15SimpleValueTypeE(ptr noundef nonnull align 8 dereferenceable(16) %12, i16 noundef zeroext 14)
  %60 = getelementptr inbounds nuw { i16, ptr }, ptr %12, i32 0, i32 0
  %61 = load i16, ptr %60, align 8
  %62 = getelementptr inbounds nuw { i16, ptr }, ptr %12, i32 0, i32 1
  %63 = load ptr, ptr %62, align 8
  %64 = call noundef zeroext i1 @_ZNK4llvm3EVTeqES0_(ptr noundef nonnull align 8 dereferenceable(16) %7, i16 %61, ptr %63)
  br i1 %64, label %65, label %66

65:                                               ; preds = %59
  store i32 394, ptr %5, align 4
  br label %182

66:                                               ; preds = %59
  call void @_ZN4llvm3EVTC2ENS_3MVT15SimpleValueTypeE(ptr noundef nonnull align 8 dereferenceable(16) %13, i16 noundef zeroext 15)
  %67 = getelementptr inbounds nuw { i16, ptr }, ptr %13, i32 0, i32 0
  %68 = load i16, ptr %67, align 8
  %69 = getelementptr inbounds nuw { i16, ptr }, ptr %13, i32 0, i32 1
  %70 = load ptr, ptr %69, align 8
  %71 = call noundef zeroext i1 @_ZNK4llvm3EVTeqES0_(ptr noundef nonnull align 8 dereferenceable(16) %7, i16 %68, ptr %70)
  br i1 %71, label %72, label %73

72:                                               ; preds = %66
  store i32 395, ptr %5, align 4
  br label %182

73:                                               ; preds = %66
  call void @_ZN4llvm3EVTC2ENS_3MVT15SimpleValueTypeE(ptr noundef nonnull align 8 dereferenceable(16) %14, i16 noundef zeroext 16)
  %74 = getelementptr inbounds nuw { i16, ptr }, ptr %14, i32 0, i32 0
  %75 = load i16, ptr %74, align 8
  %76 = getelementptr inbounds nuw { i16, ptr }, ptr %14, i32 0, i32 1
  %77 = load ptr, ptr %76, align 8
  %78 = call noundef zeroext i1 @_ZNK4llvm3EVTeqES0_(ptr noundef nonnull align 8 dereferenceable(16) %7, i16 %75, ptr %77)
  br i1 %78, label %79, label %80

79:                                               ; preds = %73
  store i32 396, ptr %5, align 4
  br label %182

80:                                               ; preds = %73
  br label %181

81:                                               ; preds = %4
  call void @_ZN4llvm3EVTC2ENS_3MVT15SimpleValueTypeE(ptr noundef nonnull align 8 dereferenceable(16) %15, i16 noundef zeroext 8)
  %82 = getelementptr inbounds nuw { i16, ptr }, ptr %15, i32 0, i32 0
  %83 = load i16, ptr %82, align 8
  %84 = getelementptr inbounds nuw { i16, ptr }, ptr %15, i32 0, i32 1
  %85 = load ptr, ptr %84, align 8
  %86 = call noundef zeroext i1 @_ZNK4llvm3EVTeqES0_(ptr noundef nonnull align 8 dereferenceable(16) %6, i16 %83, ptr %85)
  br i1 %86, label %87, label %130

87:                                               ; preds = %81
  call void @_ZN4llvm3EVTC2ENS_3MVT15SimpleValueTypeE(ptr noundef nonnull align 8 dereferenceable(16) %16, i16 noundef zeroext 11)
  %88 = getelementptr inbounds nuw { i16, ptr }, ptr %16, i32 0, i32 0
  %89 = load i16, ptr %88, align 8
  %90 = getelementptr inbounds nuw { i16, ptr }, ptr %16, i32 0, i32 1
  %91 = load ptr, ptr %90, align 8
  %92 = call noundef zeroext i1 @_ZNK4llvm3EVTeqES0_(ptr noundef nonnull align 8 dereferenceable(16) %7, i16 %89, ptr %91)
  br i1 %92, label %93, label %94

93:                                               ; preds = %87
  store i32 397, ptr %5, align 4
  br label %182

94:                                               ; preds = %87
  call void @_ZN4llvm3EVTC2ENS_3MVT15SimpleValueTypeE(ptr noundef nonnull align 8 dereferenceable(16) %17, i16 noundef zeroext 12)
  %95 = getelementptr inbounds nuw { i16, ptr }, ptr %17, i32 0, i32 0
  %96 = load i16, ptr %95, align 8
  %97 = getelementptr inbounds nuw { i16, ptr }, ptr %17, i32 0, i32 1
  %98 = load ptr, ptr %97, align 8
  %99 = call noundef zeroext i1 @_ZNK4llvm3EVTeqES0_(ptr noundef nonnull align 8 dereferenceable(16) %7, i16 %96, ptr %98)
  br i1 %99, label %100, label %101

100:                                              ; preds = %94
  store i32 398, ptr %5, align 4
  br label %182

101:                                              ; preds = %94
  call void @_ZN4llvm3EVTC2ENS_3MVT15SimpleValueTypeE(ptr noundef nonnull align 8 dereferenceable(16) %18, i16 noundef zeroext 13)
  %102 = getelementptr inbounds nuw { i16, ptr }, ptr %18, i32 0, i32 0
  %103 = load i16, ptr %102, align 8
  %104 = getelementptr inbounds nuw { i16, ptr }, ptr %18, i32 0, i32 1
  %105 = load ptr, ptr %104, align 8
  %106 = call noundef zeroext i1 @_ZNK4llvm3EVTeqES0_(ptr noundef nonnull align 8 dereferenceable(16) %7, i16 %103, ptr %105)
  br i1 %106, label %107, label %108

107:                                              ; preds = %101
  store i32 399, ptr %5, align 4
  br label %182

108:                                              ; preds = %101
  call void @_ZN4llvm3EVTC2ENS_3MVT15SimpleValueTypeE(ptr noundef nonnull align 8 dereferenceable(16) %19, i16 noundef zeroext 14)
  %109 = getelementptr inbounds nuw { i16, ptr }, ptr %19, i32 0, i32 0
  %110 = load i16, ptr %109, align 8
  %111 = getelementptr inbounds nuw { i16, ptr }, ptr %19, i32 0, i32 1
  %112 = load ptr, ptr %111, align 8
  %113 = call noundef zeroext i1 @_ZNK4llvm3EVTeqES0_(ptr noundef nonnull align 8 dereferenceable(16) %7, i16 %110, ptr %112)
  br i1 %113, label %114, label %115

114:                                              ; preds = %108
  store i32 400, ptr %5, align 4
  br label %182

115:                                              ; preds = %108
  call void @_ZN4llvm3EVTC2ENS_3MVT15SimpleValueTypeE(ptr noundef nonnull align 8 dereferenceable(16) %20, i16 noundef zeroext 15)
  %116 = getelementptr inbounds nuw { i16, ptr }, ptr %20, i32 0, i32 0
  %117 = load i16, ptr %116, align 8
  %118 = getelementptr inbounds nuw { i16, ptr }, ptr %20, i32 0, i32 1
  %119 = load ptr, ptr %118, align 8
  %120 = call noundef zeroext i1 @_ZNK4llvm3EVTeqES0_(ptr noundef nonnull align 8 dereferenceable(16) %7, i16 %117, ptr %119)
  br i1 %120, label %121, label %122

121:                                              ; preds = %115
  store i32 401, ptr %5, align 4
  br label %182

122:                                              ; preds = %115
  call void @_ZN4llvm3EVTC2ENS_3MVT15SimpleValueTypeE(ptr noundef nonnull align 8 dereferenceable(16) %21, i16 noundef zeroext 16)
  %123 = getelementptr inbounds nuw { i16, ptr }, ptr %21, i32 0, i32 0
  %124 = load i16, ptr %123, align 8
  %125 = getelementptr inbounds nuw { i16, ptr }, ptr %21, i32 0, i32 1
  %126 = load ptr, ptr %125, align 8
  %127 = call noundef zeroext i1 @_ZNK4llvm3EVTeqES0_(ptr noundef nonnull align 8 dereferenceable(16) %7, i16 %124, ptr %126)
  br i1 %127, label %128, label %129

128:                                              ; preds = %122
  store i32 402, ptr %5, align 4
  br label %182

129:                                              ; preds = %122
  br label %180

130:                                              ; preds = %81
  call void @_ZN4llvm3EVTC2ENS_3MVT15SimpleValueTypeE(ptr noundef nonnull align 8 dereferenceable(16) %22, i16 noundef zeroext 9)
  %131 = getelementptr inbounds nuw { i16, ptr }, ptr %22, i32 0, i32 0
  %132 = load i16, ptr %131, align 8
  %133 = getelementptr inbounds nuw { i16, ptr }, ptr %22, i32 0, i32 1
  %134 = load ptr, ptr %133, align 8
  %135 = call noundef zeroext i1 @_ZNK4llvm3EVTeqES0_(ptr noundef nonnull align 8 dereferenceable(16) %6, i16 %132, ptr %134)
  br i1 %135, label %136, label %179

136:                                              ; preds = %130
  call void @_ZN4llvm3EVTC2ENS_3MVT15SimpleValueTypeE(ptr noundef nonnull align 8 dereferenceable(16) %23, i16 noundef zeroext 11)
  %137 = getelementptr inbounds nuw { i16, ptr }, ptr %23, i32 0, i32 0
  %138 = load i16, ptr %137, align 8
  %139 = getelementptr inbounds nuw { i16, ptr }, ptr %23, i32 0, i32 1
  %140 = load ptr, ptr %139, align 8
  %141 = call noundef zeroext i1 @_ZNK4llvm3EVTeqES0_(ptr noundef nonnull align 8 dereferenceable(16) %7, i16 %138, ptr %140)
  br i1 %141, label %142, label %143

142:                                              ; preds = %136
  store i32 403, ptr %5, align 4
  br label %182

143:                                              ; preds = %136
  call void @_ZN4llvm3EVTC2ENS_3MVT15SimpleValueTypeE(ptr noundef nonnull align 8 dereferenceable(16) %24, i16 noundef zeroext 12)
  %144 = getelementptr inbounds nuw { i16, ptr }, ptr %24, i32 0, i32 0
  %145 = load i16, ptr %144, align 8
  %146 = getelementptr inbounds nuw { i16, ptr }, ptr %24, i32 0, i32 1
  %147 = load ptr, ptr %146, align 8
  %148 = call noundef zeroext i1 @_ZNK4llvm3EVTeqES0_(ptr noundef nonnull align 8 dereferenceable(16) %7, i16 %145, ptr %147)
  br i1 %148, label %149, label %150

149:                                              ; preds = %143
  store i32 404, ptr %5, align 4
  br label %182

150:                                              ; preds = %143
  call void @_ZN4llvm3EVTC2ENS_3MVT15SimpleValueTypeE(ptr noundef nonnull align 8 dereferenceable(16) %25, i16 noundef zeroext 13)
  %151 = getelementptr inbounds nuw { i16, ptr }, ptr %25, i32 0, i32 0
  %152 = load i16, ptr %151, align 8
  %153 = getelementptr inbounds nuw { i16, ptr }, ptr %25, i32 0, i32 1
  %154 = load ptr, ptr %153, align 8
  %155 = call noundef zeroext i1 @_ZNK4llvm3EVTeqES0_(ptr noundef nonnull align 8 dereferenceable(16) %7, i16 %152, ptr %154)
  br i1 %155, label %156, label %157

156:                                              ; preds = %150
  store i32 405, ptr %5, align 4
  br label %182

157:                                              ; preds = %150
  call void @_ZN4llvm3EVTC2ENS_3MVT15SimpleValueTypeE(ptr noundef nonnull align 8 dereferenceable(16) %26, i16 noundef zeroext 14)
  %158 = getelementptr inbounds nuw { i16, ptr }, ptr %26, i32 0, i32 0
  %159 = load i16, ptr %158, align 8
  %160 = getelementptr inbounds nuw { i16, ptr }, ptr %26, i32 0, i32 1
  %161 = load ptr, ptr %160, align 8
  %162 = call noundef zeroext i1 @_ZNK4llvm3EVTeqES0_(ptr noundef nonnull align 8 dereferenceable(16) %7, i16 %159, ptr %161)
  br i1 %162, label %163, label %164

163:                                              ; preds = %157
  store i32 406, ptr %5, align 4
  br label %182

164:                                              ; preds = %157
  call void @_ZN4llvm3EVTC2ENS_3MVT15SimpleValueTypeE(ptr noundef nonnull align 8 dereferenceable(16) %27, i16 noundef zeroext 15)
  %165 = getelementptr inbounds nuw { i16, ptr }, ptr %27, i32 0, i32 0
  %166 = load i16, ptr %165, align 8
  %167 = getelementptr inbounds nuw { i16, ptr }, ptr %27, i32 0, i32 1
  %168 = load ptr, ptr %167, align 8
  %169 = call noundef zeroext i1 @_ZNK4llvm3EVTeqES0_(ptr noundef nonnull align 8 dereferenceable(16) %7, i16 %166, ptr %168)
  br i1 %169, label %170, label %171

170:                                              ; preds = %164
  store i32 407, ptr %5, align 4
  br label %182

171:                                              ; preds = %164
  call void @_ZN4llvm3EVTC2ENS_3MVT15SimpleValueTypeE(ptr noundef nonnull align 8 dereferenceable(16) %28, i16 noundef zeroext 16)
  %172 = getelementptr inbounds nuw { i16, ptr }, ptr %28, i32 0, i32 0
  %173 = load i16, ptr %172, align 8
  %174 = getelementptr inbounds nuw { i16, ptr }, ptr %28, i32 0, i32 1
  %175 = load ptr, ptr %174, align 8
  %176 = call noundef zeroext i1 @_ZNK4llvm3EVTeqES0_(ptr noundef nonnull align 8 dereferenceable(16) %7, i16 %173, ptr %175)
  br i1 %176, label %177, label %178

177:                                              ; preds = %171
  store i32 408, ptr %5, align 4
  br label %182

178:                                              ; preds = %171
  br label %179

179:                                              ; preds = %178, %130
  br label %180

180:                                              ; preds = %179, %129
  br label %181

181:                                              ; preds = %180, %80
  store i32 700, ptr %5, align 4
  br label %182

182:                                              ; preds = %181, %177, %170, %163, %156, %149, %142, %128, %121, %114, %107, %100, %93, %79, %72, %65, %58, %51, %44
  %183 = load i32, ptr %5, align 4
  ret i32 %183
}