; Function Attrs: mustprogress nofree norecurse nosync nounwind willreturn memory(none) uwtable
define dso_local noundef range(i32 391, 701) i32 @_ZN4llvm5RTLIB11getUINTTOFPENS_3EVTES1_(i16 %0, ptr nocapture readnone %1, i16 %2, ptr nocapture readnone %3) local_unnamed_addr #2 {
  switch i16 %0, label %_ZNK4llvm3EVTeqES0_.exit18 [
    i16 7, label %5
    i16 8, label %7
    i16 9, label %9
  ]

5:                                                ; preds = %4
  %switch.tableidx = add i16 %2, -11
  %6 = icmp ult i16 %switch.tableidx, 6
  %narrow185 = add nuw nsw i16 %2, 380
  %spec.select = select i1 %6, i16 %narrow185, i16 700
  br label %_ZNK4llvm3EVTeqES0_.exit18

7:                                                ; preds = %4
  %switch.tableidx177 = add i16 %2, -11
  %8 = icmp ult i16 %switch.tableidx177, 6
  %narrow184 = add nuw nsw i16 %2, 386
  %spec.select186 = select i1 %8, i16 %narrow184, i16 700
  br label %_ZNK4llvm3EVTeqES0_.exit18

9:                                                ; preds = %4
  %switch.tableidx181 = add i16 %2, -11
  %10 = icmp ult i16 %switch.tableidx181, 6
  %narrow = add nuw nsw i16 %2, 392
  %spec.select187 = select i1 %10, i16 %narrow, i16 700
  br label %_ZNK4llvm3EVTeqES0_.exit18

_ZNK4llvm3EVTeqES0_.exit18:                       ; preds = %9, %7, %5, %4
  %.0.shrunk = phi i16 [ 700, %4 ], [ %spec.select, %5 ], [ %spec.select186, %7 ], [ %spec.select187, %9 ]
  %.0 = zext i16 %.0.shrunk to i32
  ret i32 %.0
}